
test2:     file format elf64-x86-64


Disassembly of section .init:

0000000000400538 <_init>:
  400538:	48 83 ec 08          	sub    rsp,0x8
  40053c:	48 8b 05 b5 0a 20 00 	mov    rax,QWORD PTR [rip+0x200ab5]        # 600ff8 <_DYNAMIC+0x1d0>
  400543:	48 85 c0             	test   rax,rax
  400546:	74 05                	je     40054d <_init+0x15>
  400548:	e8 a3 00 00 00       	call   4005f0 <open@plt+0x10>
  40054d:	48 83 c4 08          	add    rsp,0x8
  400551:	c3                   	ret    

Disassembly of section .plt:

0000000000400560 <puts@plt-0x10>:
  400560:	ff 35 a2 0a 20 00    	push   QWORD PTR [rip+0x200aa2]        # 601008 <_GLOBAL_OFFSET_TABLE_+0x8>
  400566:	ff 25 a4 0a 20 00    	jmp    QWORD PTR [rip+0x200aa4]        # 601010 <_GLOBAL_OFFSET_TABLE_+0x10>
  40056c:	0f 1f 40 00          	nop    DWORD PTR [rax+0x0]

0000000000400570 <puts@plt>:
  400570:	ff 25 a2 0a 20 00    	jmp    QWORD PTR [rip+0x200aa2]        # 601018 <_GLOBAL_OFFSET_TABLE_+0x18>
  400576:	68 00 00 00 00       	push   0x0
  40057b:	e9 e0 ff ff ff       	jmp    400560 <_init+0x28>

0000000000400580 <__stack_chk_fail@plt>:
  400580:	ff 25 9a 0a 20 00    	jmp    QWORD PTR [rip+0x200a9a]        # 601020 <_GLOBAL_OFFSET_TABLE_+0x20>
  400586:	68 01 00 00 00       	push   0x1
  40058b:	e9 d0 ff ff ff       	jmp    400560 <_init+0x28>

0000000000400590 <mmap@plt>:
  400590:	ff 25 92 0a 20 00    	jmp    QWORD PTR [rip+0x200a92]        # 601028 <_GLOBAL_OFFSET_TABLE_+0x28>
  400596:	68 02 00 00 00       	push   0x2
  40059b:	e9 c0 ff ff ff       	jmp    400560 <_init+0x28>

00000000004005a0 <memset@plt>:
  4005a0:	ff 25 8a 0a 20 00    	jmp    QWORD PTR [rip+0x200a8a]        # 601030 <_GLOBAL_OFFSET_TABLE_+0x30>
  4005a6:	68 03 00 00 00       	push   0x3
  4005ab:	e9 b0 ff ff ff       	jmp    400560 <_init+0x28>

00000000004005b0 <close@plt>:
  4005b0:	ff 25 82 0a 20 00    	jmp    QWORD PTR [rip+0x200a82]        # 601038 <_GLOBAL_OFFSET_TABLE_+0x38>
  4005b6:	68 04 00 00 00       	push   0x4
  4005bb:	e9 a0 ff ff ff       	jmp    400560 <_init+0x28>

00000000004005c0 <read@plt>:
  4005c0:	ff 25 7a 0a 20 00    	jmp    QWORD PTR [rip+0x200a7a]        # 601040 <_GLOBAL_OFFSET_TABLE_+0x40>
  4005c6:	68 05 00 00 00       	push   0x5
  4005cb:	e9 90 ff ff ff       	jmp    400560 <_init+0x28>

00000000004005d0 <__libc_start_main@plt>:
  4005d0:	ff 25 72 0a 20 00    	jmp    QWORD PTR [rip+0x200a72]        # 601048 <_GLOBAL_OFFSET_TABLE_+0x48>
  4005d6:	68 06 00 00 00       	push   0x6
  4005db:	e9 80 ff ff ff       	jmp    400560 <_init+0x28>

00000000004005e0 <open@plt>:
  4005e0:	ff 25 6a 0a 20 00    	jmp    QWORD PTR [rip+0x200a6a]        # 601050 <_GLOBAL_OFFSET_TABLE_+0x50>
  4005e6:	68 07 00 00 00       	push   0x7
  4005eb:	e9 70 ff ff ff       	jmp    400560 <_init+0x28>

Disassembly of section .plt.got:

00000000004005f0 <.plt.got>:
  4005f0:	ff 25 02 0a 20 00    	jmp    QWORD PTR [rip+0x200a02]        # 600ff8 <_DYNAMIC+0x1d0>
  4005f6:	66 90                	xchg   ax,ax

Disassembly of section .text:

0000000000400600 <_start>:
  400600:	31 ed                	xor    ebp,ebp
  400602:	49 89 d1             	mov    r9,rdx
  400605:	5e                   	pop    rsi
  400606:	48 89 e2             	mov    rdx,rsp
  400609:	48 83 e4 f0          	and    rsp,0xfffffffffffffff0
  40060d:	50                   	push   rax
  40060e:	54                   	push   rsp
  40060f:	49 c7 c0 f0 09 40 00 	mov    r8,0x4009f0
  400616:	48 c7 c1 80 09 40 00 	mov    rcx,0x400980
  40061d:	48 c7 c7 f6 06 40 00 	mov    rdi,0x4006f6
  400624:	e8 a7 ff ff ff       	call   4005d0 <__libc_start_main@plt>
  400629:	f4                   	hlt    
  40062a:	66 0f 1f 44 00 00    	nop    WORD PTR [rax+rax*1+0x0]

0000000000400630 <deregister_tm_clones>:
  400630:	b8 6f 10 60 00       	mov    eax,0x60106f
  400635:	55                   	push   rbp
  400636:	48 2d 68 10 60 00    	sub    rax,0x601068
  40063c:	48 83 f8 0e          	cmp    rax,0xe
  400640:	48 89 e5             	mov    rbp,rsp
  400643:	76 1b                	jbe    400660 <deregister_tm_clones+0x30>
  400645:	b8 00 00 00 00       	mov    eax,0x0
  40064a:	48 85 c0             	test   rax,rax
  40064d:	74 11                	je     400660 <deregister_tm_clones+0x30>
  40064f:	5d                   	pop    rbp
  400650:	bf 68 10 60 00       	mov    edi,0x601068
  400655:	ff e0                	jmp    rax
  400657:	66 0f 1f 84 00 00 00 	nop    WORD PTR [rax+rax*1+0x0]
  40065e:	00 00 
  400660:	5d                   	pop    rbp
  400661:	c3                   	ret    
  400662:	0f 1f 40 00          	nop    DWORD PTR [rax+0x0]
  400666:	66 2e 0f 1f 84 00 00 	nop    WORD PTR cs:[rax+rax*1+0x0]
  40066d:	00 00 00 

0000000000400670 <register_tm_clones>:
  400670:	be 68 10 60 00       	mov    esi,0x601068
  400675:	55                   	push   rbp
  400676:	48 81 ee 68 10 60 00 	sub    rsi,0x601068
  40067d:	48 c1 fe 03          	sar    rsi,0x3
  400681:	48 89 e5             	mov    rbp,rsp
  400684:	48 89 f0             	mov    rax,rsi
  400687:	48 c1 e8 3f          	shr    rax,0x3f
  40068b:	48 01 c6             	add    rsi,rax
  40068e:	48 d1 fe             	sar    rsi,1
  400691:	74 15                	je     4006a8 <register_tm_clones+0x38>
  400693:	b8 00 00 00 00       	mov    eax,0x0
  400698:	48 85 c0             	test   rax,rax
  40069b:	74 0b                	je     4006a8 <register_tm_clones+0x38>
  40069d:	5d                   	pop    rbp
  40069e:	bf 68 10 60 00       	mov    edi,0x601068
  4006a3:	ff e0                	jmp    rax
  4006a5:	0f 1f 00             	nop    DWORD PTR [rax]
  4006a8:	5d                   	pop    rbp
  4006a9:	c3                   	ret    
  4006aa:	66 0f 1f 44 00 00    	nop    WORD PTR [rax+rax*1+0x0]

00000000004006b0 <__do_global_dtors_aux>:
  4006b0:	80 3d b1 09 20 00 00 	cmp    BYTE PTR [rip+0x2009b1],0x0        # 601068 <__TMC_END__>
  4006b7:	75 11                	jne    4006ca <__do_global_dtors_aux+0x1a>
  4006b9:	55                   	push   rbp
  4006ba:	48 89 e5             	mov    rbp,rsp
  4006bd:	e8 6e ff ff ff       	call   400630 <deregister_tm_clones>
  4006c2:	5d                   	pop    rbp
  4006c3:	c6 05 9e 09 20 00 01 	mov    BYTE PTR [rip+0x20099e],0x1        # 601068 <__TMC_END__>
  4006ca:	f3 c3                	repz ret 
  4006cc:	0f 1f 40 00          	nop    DWORD PTR [rax+0x0]

00000000004006d0 <frame_dummy>:
  4006d0:	bf 20 0e 60 00       	mov    edi,0x600e20
  4006d5:	48 83 3f 00          	cmp    QWORD PTR [rdi],0x0
  4006d9:	75 05                	jne    4006e0 <frame_dummy+0x10>
  4006db:	eb 93                	jmp    400670 <register_tm_clones>
  4006dd:	0f 1f 00             	nop    DWORD PTR [rax]
  4006e0:	b8 00 00 00 00       	mov    eax,0x0
  4006e5:	48 85 c0             	test   rax,rax
  4006e8:	74 f1                	je     4006db <frame_dummy+0xb>
  4006ea:	55                   	push   rbp
  4006eb:	48 89 e5             	mov    rbp,rsp
  4006ee:	ff d0                	call   rax
  4006f0:	5d                   	pop    rbp
  4006f1:	e9 7a ff ff ff       	jmp    400670 <register_tm_clones>

00000000004006f6 <main>:
  4006f6:	55                   	push   rbp
  4006f7:	48 89 e5             	mov    rbp,rsp
  4006fa:	48 81 ec 50 50 00 00 	sub    rsp,0x5050
  400701:	89 bd bc af ff ff    	mov    DWORD PTR [rbp-0x5044],edi
  400707:	48 89 b5 b0 af ff ff 	mov    QWORD PTR [rbp-0x5050],rsi
  40070e:	64 48 8b 04 25 28 00 	mov    rax,QWORD PTR fs:0x28
  400715:	00 00 
  400717:	48 89 45 f8          	mov    QWORD PTR [rbp-0x8],rax
  40071b:	31 c0                	xor    eax,eax
  40071d:	48 8b 85 b0 af ff ff 	mov    rax,QWORD PTR [rbp-0x5050]
  400724:	48 83 c0 08          	add    rax,0x8
  400728:	48 8b 00             	mov    rax,QWORD PTR [rax]
  40072b:	be 00 00 00 00       	mov    esi,0x0
  400730:	48 89 c7             	mov    rdi,rax
  400733:	b8 00 00 00 00       	mov    eax,0x0
  400738:	e8 a3 fe ff ff       	call   4005e0 <open@plt>
  40073d:	89 85 d4 af ff ff    	mov    DWORD PTR [rbp-0x502c],eax
  400743:	c7 85 d8 af ff ff 00 	mov    DWORD PTR [rbp-0x5028],0x0
  40074a:	00 00 00 
  40074d:	c7 85 dc af ff ff 00 	mov    DWORD PTR [rbp-0x5024],0x0
  400754:	00 00 00 
  400757:	c7 85 e0 af ff ff 00 	mov    DWORD PTR [rbp-0x5020],0x0
  40075e:	00 00 00 
  400761:	c7 85 cc af ff ff 0a 	mov    DWORD PTR [rbp-0x5034],0xa
  400768:	00 00 00 
  40076b:	c7 85 d0 af ff ff 0a 	mov    DWORD PTR [rbp-0x5030],0xa
  400772:	00 00 00 
  400775:	48 8d 8d f0 af ff ff 	lea    rcx,[rbp-0x5010]
  40077c:	8b 85 d4 af ff ff    	mov    eax,DWORD PTR [rbp-0x502c]
  400782:	ba 00 50 00 00       	mov    edx,0x5000
  400787:	48 89 ce             	mov    rsi,rcx
  40078a:	89 c7                	mov    edi,eax
  40078c:	e8 2f fe ff ff       	call   4005c0 <read@plt>
  400791:	89 85 e4 af ff ff    	mov    DWORD PTR [rbp-0x501c],eax
  400797:	c7 85 c8 af ff ff 00 	mov    DWORD PTR [rbp-0x5038],0x0
  40079e:	00 00 00 
  4007a1:	e9 71 01 00 00       	jmp    400917 <main+0x221>
  4007a6:	8b 85 c8 af ff ff    	mov    eax,DWORD PTR [rbp-0x5038]
  4007ac:	48 98                	cdqe   
  4007ae:	0f b6 84 05 f0 af ff 	movzx  eax,BYTE PTR [rbp+rax*1-0x5010]
  4007b5:	ff 
  4007b6:	3c ff                	cmp    al,0xff
  4007b8:	0f 85 52 01 00 00    	jne    400910 <main+0x21a>
  4007be:	8b 85 c8 af ff ff    	mov    eax,DWORD PTR [rbp-0x5038]
  4007c4:	83 c0 01             	add    eax,0x1
  4007c7:	48 98                	cdqe   
  4007c9:	0f b6 84 05 f0 af ff 	movzx  eax,BYTE PTR [rbp+rax*1-0x5010]
  4007d0:	ff 
  4007d1:	3c c0                	cmp    al,0xc0
  4007d3:	0f 85 37 01 00 00    	jne    400910 <main+0x21a>
  4007d9:	8b 85 c8 af ff ff    	mov    eax,DWORD PTR [rbp-0x5038]
  4007df:	83 c0 05             	add    eax,0x5
  4007e2:	48 98                	cdqe   
  4007e4:	0f b6 84 05 f0 af ff 	movzx  eax,BYTE PTR [rbp+rax*1-0x5010]
  4007eb:	ff 
  4007ec:	0f b6 c0             	movzx  eax,al
  4007ef:	c1 e0 08             	shl    eax,0x8
  4007f2:	89 c2                	mov    edx,eax
  4007f4:	8b 85 c8 af ff ff    	mov    eax,DWORD PTR [rbp-0x5038]
  4007fa:	83 c0 06             	add    eax,0x6
  4007fd:	48 98                	cdqe   
  4007ff:	0f b6 84 05 f0 af ff 	movzx  eax,BYTE PTR [rbp+rax*1-0x5010]
  400806:	ff 
  400807:	0f b6 c0             	movzx  eax,al
  40080a:	01 d0                	add    eax,edx
  40080c:	89 85 dc af ff ff    	mov    DWORD PTR [rbp-0x5024],eax
  400812:	8b 85 c8 af ff ff    	mov    eax,DWORD PTR [rbp-0x5038]
  400818:	83 c0 07             	add    eax,0x7
  40081b:	48 98                	cdqe   
  40081d:	0f b6 84 05 f0 af ff 	movzx  eax,BYTE PTR [rbp+rax*1-0x5010]
  400824:	ff 
  400825:	0f b6 c0             	movzx  eax,al
  400828:	c1 e0 08             	shl    eax,0x8
  40082b:	89 c2                	mov    edx,eax
  40082d:	8b 85 c8 af ff ff    	mov    eax,DWORD PTR [rbp-0x5038]
  400833:	83 c0 08             	add    eax,0x8
  400836:	48 98                	cdqe   
  400838:	0f b6 84 05 f0 af ff 	movzx  eax,BYTE PTR [rbp+rax*1-0x5010]
  40083f:	ff 
  400840:	0f b6 c0             	movzx  eax,al
  400843:	01 d0                	add    eax,edx
  400845:	89 85 d8 af ff ff    	mov    DWORD PTR [rbp-0x5028],eax
  40084b:	81 bd dc af ff ff 50 	cmp    DWORD PTR [rbp-0x5024],0xc350
  400852:	c3 00 00 
  400855:	7e 0c                	jle    400863 <main+0x16d>
  400857:	c7 85 dc af ff ff 01 	mov    DWORD PTR [rbp-0x5024],0x1
  40085e:	00 00 00 
  400861:	eb 66                	jmp    4008c9 <main+0x1d3>
  400863:	81 bd d8 af ff ff 50 	cmp    DWORD PTR [rbp-0x5028],0xc350
  40086a:	c3 00 00 
  40086d:	7e 0c                	jle    40087b <main+0x185>
  40086f:	c7 85 d8 af ff ff 01 	mov    DWORD PTR [rbp-0x5028],0x1
  400876:	00 00 00 
  400879:	eb 4e                	jmp    4008c9 <main+0x1d3>
  40087b:	8b 95 dc af ff ff    	mov    edx,DWORD PTR [rbp-0x5024]
  400881:	8b 85 d8 af ff ff    	mov    eax,DWORD PTR [rbp-0x5028]
  400887:	01 d0                	add    eax,edx
  400889:	3d 10 27 00 00       	cmp    eax,0x2710
  40088e:	7e 21                	jle    4008b1 <main+0x1bb>
  400890:	8b 95 dc af ff ff    	mov    edx,DWORD PTR [rbp-0x5024]
  400896:	8b 85 d8 af ff ff    	mov    eax,DWORD PTR [rbp-0x5028]
  40089c:	01 d0                	add    eax,edx
  40089e:	3d 17 73 01 00       	cmp    eax,0x17317
  4008a3:	7f 0c                	jg     4008b1 <main+0x1bb>
  4008a5:	c7 85 d8 af ff ff 01 	mov    DWORD PTR [rbp-0x5028],0x1
  4008ac:	00 00 00 
  4008af:	eb 18                	jmp    4008c9 <main+0x1d3>
  4008b1:	8b 85 dc af ff ff    	mov    eax,DWORD PTR [rbp-0x5024]
  4008b7:	89 85 cc af ff ff    	mov    DWORD PTR [rbp-0x5034],eax
  4008bd:	8b 85 d8 af ff ff    	mov    eax,DWORD PTR [rbp-0x5028]
  4008c3:	89 85 d0 af ff ff    	mov    DWORD PTR [rbp-0x5030],eax
  4008c9:	8b 85 cc af ff ff    	mov    eax,DWORD PTR [rbp-0x5034]
  4008cf:	0f af 85 d0 af ff ff 	imul   eax,DWORD PTR [rbp-0x5030]
  4008d6:	89 85 e0 af ff ff    	mov    DWORD PTR [rbp-0x5020],eax
  4008dc:	8b 85 e0 af ff ff    	mov    eax,DWORD PTR [rbp-0x5020]
  4008e2:	48 98                	cdqe   
  4008e4:	41 b9 00 00 00 00    	mov    r9d,0x0
  4008ea:	41 b8 ff ff ff ff    	mov    r8d,0xffffffff
  4008f0:	b9 22 00 00 00       	mov    ecx,0x22
  4008f5:	ba 03 00 00 00       	mov    edx,0x3
  4008fa:	48 89 c6             	mov    rsi,rax
  4008fd:	bf 00 00 00 00       	mov    edi,0x0
  400902:	e8 89 fc ff ff       	call   400590 <mmap@plt>
  400907:	48 89 85 e8 af ff ff 	mov    QWORD PTR [rbp-0x5018],rax
  40090e:	eb 19                	jmp    400929 <main+0x233>
  400910:	83 85 c8 af ff ff 01 	add    DWORD PTR [rbp-0x5038],0x1
  400917:	8b 85 c8 af ff ff    	mov    eax,DWORD PTR [rbp-0x5038]
  40091d:	3b 85 e4 af ff ff    	cmp    eax,DWORD PTR [rbp-0x501c]
  400923:	0f 8c 7d fe ff ff    	jl     4007a6 <main+0xb0>
  400929:	48 8b 85 e8 af ff ff 	mov    rax,QWORD PTR [rbp-0x5018]
  400930:	ba 0a 00 00 00       	mov    edx,0xa
  400935:	be 61 00 00 00       	mov    esi,0x61
  40093a:	48 89 c7             	mov    rdi,rax
  40093d:	e8 5e fc ff ff       	call   4005a0 <memset@plt>
  400942:	48 8b 85 e8 af ff ff 	mov    rax,QWORD PTR [rbp-0x5018]
  400949:	48 89 c7             	mov    rdi,rax
  40094c:	e8 1f fc ff ff       	call   400570 <puts@plt>
  400951:	8b 85 d4 af ff ff    	mov    eax,DWORD PTR [rbp-0x502c]
  400957:	89 c7                	mov    edi,eax
  400959:	e8 52 fc ff ff       	call   4005b0 <close@plt>
  40095e:	b8 00 00 00 00       	mov    eax,0x0
  400963:	48 8b 4d f8          	mov    rcx,QWORD PTR [rbp-0x8]
  400967:	64 48 33 0c 25 28 00 	xor    rcx,QWORD PTR fs:0x28
  40096e:	00 00 
  400970:	74 05                	je     400977 <main+0x281>
  400972:	e8 09 fc ff ff       	call   400580 <__stack_chk_fail@plt>
  400977:	c9                   	leave  
  400978:	c3                   	ret    
  400979:	0f 1f 80 00 00 00 00 	nop    DWORD PTR [rax+0x0]

0000000000400980 <__libc_csu_init>:
  400980:	41 57                	push   r15
  400982:	41 56                	push   r14
  400984:	41 89 ff             	mov    r15d,edi
  400987:	41 55                	push   r13
  400989:	41 54                	push   r12
  40098b:	4c 8d 25 7e 04 20 00 	lea    r12,[rip+0x20047e]        # 600e10 <__frame_dummy_init_array_entry>
  400992:	55                   	push   rbp
  400993:	48 8d 2d 7e 04 20 00 	lea    rbp,[rip+0x20047e]        # 600e18 <__init_array_end>
  40099a:	53                   	push   rbx
  40099b:	49 89 f6             	mov    r14,rsi
  40099e:	49 89 d5             	mov    r13,rdx
  4009a1:	4c 29 e5             	sub    rbp,r12
  4009a4:	48 83 ec 08          	sub    rsp,0x8
  4009a8:	48 c1 fd 03          	sar    rbp,0x3
  4009ac:	e8 87 fb ff ff       	call   400538 <_init>
  4009b1:	48 85 ed             	test   rbp,rbp
  4009b4:	74 20                	je     4009d6 <__libc_csu_init+0x56>
  4009b6:	31 db                	xor    ebx,ebx
  4009b8:	0f 1f 84 00 00 00 00 	nop    DWORD PTR [rax+rax*1+0x0]
  4009bf:	00 
  4009c0:	4c 89 ea             	mov    rdx,r13
  4009c3:	4c 89 f6             	mov    rsi,r14
  4009c6:	44 89 ff             	mov    edi,r15d
  4009c9:	41 ff 14 dc          	call   QWORD PTR [r12+rbx*8]
  4009cd:	48 83 c3 01          	add    rbx,0x1
  4009d1:	48 39 eb             	cmp    rbx,rbp
  4009d4:	75 ea                	jne    4009c0 <__libc_csu_init+0x40>
  4009d6:	48 83 c4 08          	add    rsp,0x8
  4009da:	5b                   	pop    rbx
  4009db:	5d                   	pop    rbp
  4009dc:	41 5c                	pop    r12
  4009de:	41 5d                	pop    r13
  4009e0:	41 5e                	pop    r14
  4009e2:	41 5f                	pop    r15
  4009e4:	c3                   	ret    
  4009e5:	90                   	nop
  4009e6:	66 2e 0f 1f 84 00 00 	nop    WORD PTR cs:[rax+rax*1+0x0]
  4009ed:	00 00 00 

00000000004009f0 <__libc_csu_fini>:
  4009f0:	f3 c3                	repz ret 

Disassembly of section .fini:

00000000004009f4 <_fini>:
  4009f4:	48 83 ec 08          	sub    rsp,0x8
  4009f8:	48 83 c4 08          	add    rsp,0x8
  4009fc:	c3                   	ret    
